target datalayout = "e-m:e-p270:32:32-p271:32:32-p272:64:64-i64:64-i128:128-f80:128-n8:16:32:64-S128"
target triple = "x86_64-pc-linux-gnu"

; Function Attrs: nounwind uwtable
define void @Sim_UtilSetRandom(ptr noundef %0, i32 noundef %1) #0 {
  %3 = alloca ptr, align 8
  %4 = alloca i32, align 4
  %5 = alloca i32, align 4
  store ptr %0, ptr %3, align 8, !tbaa !17
  store i32 %1, ptr %4, align 4, !tbaa !3
  call void @llvm.lifetime.start.p0(i64 4, ptr %5) #8
  store i32 0, ptr %5, align 4, !tbaa !3
  br label %6

6:                                                ; preds = %22, %2
  %7 = load i32, ptr %5, align 4, !tbaa !3
  %8 = load i32, ptr %4, align 4, !tbaa !3
  %9 = icmp slt i32 %7, %8
  br i1 %9, label %10, label %25

10:                                               ; preds = %6
  %11 = call i32 @rand() #8
  %12 = shl i32 %11, 24
  %13 = call i32 @rand() #8
  %14 = shl i32 %13, 12
  %15 = xor i32 %12, %14
  %16 = call i32 @rand() #8
  %17 = xor i32 %15, %16
  %18 = load ptr, ptr %3, align 8, !tbaa !17
  %19 = load i32, ptr %5, align 4, !tbaa !3
  %20 = sext i32 %19 to i64
  %21 = getelementptr inbounds i32, ptr %18, i64 %20
  store i32 %17, ptr %21, align 4, !tbaa !3
  br label %22

22:                                               ; preds = %10
  %23 = load i32, ptr %5, align 4, !tbaa !3
  %24 = add nsw i32 %23, 1
  store i32 %24, ptr %5, align 4, !tbaa !3
  br label %6, !llvm.loop !87

25:                                               ; preds = %6
  call void @llvm.lifetime.end.p0(i64 4, ptr %5) #8
  ret void
}