; Function Attrs: nounwind uwtable
define void @Sim_UtilSetRandom(ptr noundef writeonly captures(none) %0, i32 noundef %1) local_unnamed_addr #7 {
  %3 = icmp sgt i32 %1, 0
  br i1 %3, label %.lr.ph.preheader, label %._crit_edge

.lr.ph.preheader:                                 ; preds = %2
  %wide.trip.count = zext nneg i32 %1 to i64
  br label %.lr.ph

.lr.ph:                                           ; preds = %.lr.ph.preheader, %.lr.ph
  %indvars.iv = phi i64 [ 0, %.lr.ph.preheader ], [ %indvars.iv.next, %.lr.ph ]
  %4 = tail call i32 @rand() #18
  %5 = shl i32 %4, 24
  %6 = tail call i32 @rand() #18
  %7 = shl i32 %6, 12
  %8 = xor i32 %7, %5
  %9 = tail call i32 @rand() #18
  %10 = xor i32 %8, %9
  %11 = getelementptr inbounds nuw i32, ptr %0, i64 %indvars.iv
  store i32 %10, ptr %11, align 4, !tbaa !14
  %indvars.iv.next = add nuw nsw i64 %indvars.iv, 1
  %exitcond.not = icmp eq i64 %indvars.iv.next, %wide.trip.count
  br i1 %exitcond.not, label %._crit_edge, label %.lr.ph, !llvm.loop !80

._crit_edge:                                      ; preds = %.lr.ph, %2
  ret void
}